; Function Attrs: mustprogress uwtable
define noundef float @_ZN5ImGui23TableGetHeaderRowHeightEv() local_unnamed_addr #3 {
  %1 = load ptr, ptr @GImGui, align 8, !tbaa !3
  %2 = getelementptr inbounds nuw i8, ptr %1, i64 8640
  %3 = load ptr, ptr %2, align 8, !tbaa !266
  %4 = getelementptr inbounds nuw i8, ptr %1, i64 4272
  %5 = load float, ptr %4, align 8, !tbaa !317
  %6 = getelementptr inbounds nuw i8, ptr %3, i64 108
  %7 = load i32, ptr %6, align 4, !tbaa !209
  %8 = icmp sgt i32 %7, 0
  br i1 %8, label %.lr.ph, label %._crit_edge

.lr.ph:                                           ; preds = %0
  %9 = getelementptr inbounds nuw i8, ptr %3, i64 80
  %10 = getelementptr inbounds nuw i8, ptr %3, i64 24
  %11 = getelementptr inbounds nuw i8, ptr %3, i64 567
  %12 = getelementptr inbounds nuw i8, ptr %3, i64 518
  %13 = getelementptr inbounds nuw i8, ptr %3, i64 408
  br label %17

._crit_edge:                                      ; preds = %51, %0
  %.0.lcssa = phi float [ %5, %0 ], [ %.1, %51 ]
  %14 = getelementptr inbounds nuw i8, ptr %1, i64 3196
  %15 = load float, ptr %14, align 4, !tbaa !425
  %16 = tail call float @llvm.fmuladd.f32(float %15, float 2.000000e+00, float %.0.lcssa)
  ret float %16

17:                                               ; preds = %.lr.ph, %51
  %18 = phi i32 [ %7, %.lr.ph ], [ %52, %51 ]
  %indvars.iv = phi i64 [ 0, %.lr.ph ], [ %indvars.iv.next, %51 ]
  %.018 = phi float [ %5, %.lr.ph ], [ %.1, %51 ]
  %19 = load ptr, ptr %9, align 8, !tbaa !287
  %20 = trunc nuw nsw i64 %indvars.iv to i32
  %21 = lshr i64 %indvars.iv, 5
  %22 = and i64 %21, 134217727
  %23 = getelementptr inbounds nuw i32, ptr %19, i64 %22
  %24 = load i32, ptr %23, align 4, !tbaa !280
  %25 = and i32 %20, 31
  %26 = shl nuw i32 1, %25
  %27 = and i32 %24, %26
  %.not = icmp eq i32 %27, 0
  br i1 %.not, label %51, label %28

28:                                               ; preds = %17
  %29 = load ptr, ptr %10, align 8, !tbaa !278
  %30 = getelementptr inbounds nuw %struct.ImGuiTableColumn, ptr %29, i64 %indvars.iv
  %31 = load i32, ptr %30, align 4, !tbaa !339
  %32 = and i32 %31, 4096
  %33 = icmp eq i32 %32, 0
  br i1 %33, label %34, label %51

34:                                               ; preds = %28
  %35 = load i8, ptr %11, align 1, !tbaa !210, !range !153, !noundef !154
  %36 = icmp eq i8 %35, 0
  br i1 %36, label %37, label %40

37:                                               ; preds = %34
  %38 = load i16, ptr %12, align 2, !tbaa !260
  %39 = sext i16 %38 to i64
  %.not.i = icmp slt i64 %indvars.iv, %39
  br i1 %.not.i, label %40, label %_ZN5ImGui18TableGetColumnNameEPK10ImGuiTablei.exit

40:                                               ; preds = %37, %34
  %41 = getelementptr inbounds nuw %struct.ImGuiTableColumn, ptr %29, i64 %indvars.iv, i32 18
  %42 = load i16, ptr %41, align 4, !tbaa !371
  %43 = icmp eq i16 %42, -1
  br i1 %43, label %_ZN5ImGui18TableGetColumnNameEPK10ImGuiTablei.exit, label %44

44:                                               ; preds = %40
  %45 = load ptr, ptr %13, align 8, !tbaa !323
  %46 = sext i16 %42 to i64
  %47 = getelementptr inbounds i8, ptr %45, i64 %46
  br label %_ZN5ImGui18TableGetColumnNameEPK10ImGuiTablei.exit

_ZN5ImGui18TableGetColumnNameEPK10ImGuiTablei.exit: ; preds = %37, %40, %44
  %.0.i = phi ptr [ @.str.6, %37 ], [ %47, %44 ], [ @.str.6, %40 ]
  %48 = tail call <2 x float> @_ZN5ImGui12CalcTextSizeEPKcS1_bf(ptr noundef %.0.i, ptr noundef null, i1 noundef zeroext false, float noundef -1.000000e+00)
  %.sroa.0.4.vec.extract = extractelement <2 x float> %48, i64 1
  %49 = fcmp oge float %.018, %.sroa.0.4.vec.extract
  %50 = select i1 %49, float %.018, float %.sroa.0.4.vec.extract
  %.pre = load i32, ptr %6, align 4, !tbaa !209
  br label %51

51:                                               ; preds = %17, %_ZN5ImGui18TableGetColumnNameEPK10ImGuiTablei.exit, %28
  %52 = phi i32 [ %.pre, %_ZN5ImGui18TableGetColumnNameEPK10ImGuiTablei.exit ], [ %18, %28 ], [ %18, %17 ]
  %.1 = phi float [ %50, %_ZN5ImGui18TableGetColumnNameEPK10ImGuiTablei.exit ], [ %.018, %28 ], [ %.018, %17 ]
  %indvars.iv.next = add nuw nsw i64 %indvars.iv, 1
  %53 = sext i32 %52 to i64
  %54 = icmp slt i64 %indvars.iv.next, %53
  br i1 %54, label %17, label %._crit_edge, !llvm.loop !561
}